target datalayout = "e-m:e-p270:32:32-p271:32:32-p272:64:64-i64:64-i128:128-f80:128-n8:16:32:64-S128"
target triple = "x86_64-pc-linux-gnu"

%struct.ByUnfoldKey = type { i32, i16, i16 }

; Function Attrs: inlinehint nounwind uwtable
define internal i32 @hash(ptr noundef %0) #2 {
  %2 = alloca ptr, align 8
  store ptr %0, ptr %2, align 8, !tbaa !12
  %3 = load ptr, ptr %2, align 8, !tbaa !12
  %4 = call i32 @onig_codes_byte_at(ptr noundef %3, i32 noundef 2)
  %5 = trunc i32 %4 to i8
  %6 = zext i8 %5 to i32
  %7 = add nsw i32 %6, 35
  %8 = sext i32 %7 to i64
  %9 = getelementptr inbounds [291 x i16], ptr @hash.asso_values, i64 0, i64 %8
  %10 = load i16, ptr %9, align 2, !tbaa !15
  %11 = zext i16 %10 to i32
  %12 = load ptr, ptr %2, align 8, !tbaa !12
  %13 = call i32 @onig_codes_byte_at(ptr noundef %12, i32 noundef 1)
  %14 = trunc i32 %13 to i8
  %15 = zext i8 %14 to i32
  %16 = add nsw i32 %15, 1
  %17 = sext i32 %16 to i64
  %18 = getelementptr inbounds [291 x i16], ptr @hash.asso_values, i64 0, i64 %17
  %19 = load i16, ptr %18, align 2, !tbaa !15
  %20 = zext i16 %19 to i32
  %21 = add nsw i32 %11, %20
  %22 = load ptr, ptr %2, align 8, !tbaa !12
  %23 = call i32 @onig_codes_byte_at(ptr noundef %22, i32 noundef 0)
  %24 = trunc i32 %23 to i8
  %25 = zext i8 %24 to i64
  %26 = getelementptr inbounds nuw [291 x i16], ptr @hash.asso_values, i64 0, i64 %25
  %27 = load i16, ptr %26, align 2, !tbaa !15
  %28 = zext i16 %27 to i32
  %29 = add nsw i32 %21, %28
  ret i32 %29
}

; Function Attrs: nounwind uwtable
define dso_local ptr @onigenc_unicode_unfold_key(i32 noundef %0) #0 {
  %2 = alloca ptr, align 8
  %3 = alloca i32, align 4
  %4 = alloca i32, align 4
  %5 = alloca i32, align 4
  %6 = alloca i32, align 4
  store i32 %0, ptr %3, align 4, !tbaa !4
  call void @llvm.lifetime.start.p0(i64 4, ptr %4) #4
  %7 = call i32 @hash(ptr noundef %3)
  store i32 %7, ptr %4, align 4, !tbaa !4
  %8 = load i32, ptr %4, align 4, !tbaa !4
  %9 = icmp sle i32 %8, 1947
  br i1 %9, label %10, label %35

10:                                               ; preds = %1
  call void @llvm.lifetime.start.p0(i64 4, ptr %5) #4
  %11 = load i32, ptr %4, align 4, !tbaa !4
  %12 = sext i32 %11 to i64
  %13 = getelementptr inbounds [1948 x %struct.ByUnfoldKey], ptr @onigenc_unicode_unfold_key.wordlist, i64 0, i64 %12
  %14 = getelementptr inbounds nuw %struct.ByUnfoldKey, ptr %13, i32 0, i32 0
  %15 = load i32, ptr %14, align 8, !tbaa !8
  store i32 %15, ptr %5, align 4, !tbaa !4
  %16 = load i32, ptr %3, align 4, !tbaa !4
  %17 = load i32, ptr %5, align 4, !tbaa !4
  %18 = icmp eq i32 %16, %17
  br i1 %18, label %19, label %31

19:                                               ; preds = %10
  %20 = load i32, ptr %4, align 4, !tbaa !4
  %21 = sext i32 %20 to i64
  %22 = getelementptr inbounds [1948 x %struct.ByUnfoldKey], ptr @onigenc_unicode_unfold_key.wordlist, i64 0, i64 %21
  %23 = getelementptr inbounds nuw %struct.ByUnfoldKey, ptr %22, i32 0, i32 1
  %24 = load i16, ptr %23, align 4, !tbaa !11
  %25 = sext i16 %24 to i32
  %26 = icmp sge i32 %25, 0
  br i1 %26, label %27, label %31

27:                                               ; preds = %19
  %28 = load i32, ptr %4, align 4, !tbaa !4
  %29 = sext i32 %28 to i64
  %30 = getelementptr inbounds [1948 x %struct.ByUnfoldKey], ptr @onigenc_unicode_unfold_key.wordlist, i64 0, i64 %29
  store ptr %30, ptr %2, align 8
  store i32 1, ptr %6, align 4
  br label %32

31:                                               ; preds = %19, %10
  store i32 0, ptr %6, align 4
  br label %32

32:                                               ; preds = %31, %27
  call void @llvm.lifetime.end.p0(i64 4, ptr %5) #4
  %33 = load i32, ptr %6, align 4
  switch i32 %33, label %36 [
    i32 0, label %34
  ]

34:                                               ; preds = %32
  br label %35

35:                                               ; preds = %34, %1
  store i32 0, ptr %6, align 4
  br label %36

36:                                               ; preds = %35, %32
  call void @llvm.lifetime.end.p0(i64 4, ptr %4) #4
  %37 = load i32, ptr %6, align 4
  switch i32 %37, label %41 [
    i32 0, label %38
    i32 1, label %39
  ]

38:                                               ; preds = %36
  store ptr null, ptr %2, align 8
  br label %39

39:                                               ; preds = %38, %36
  %40 = load ptr, ptr %2, align 8
  ret ptr %40

41:                                               ; preds = %36
  unreachable
}