; Function Attrs: nounwind uwtable
define dso_local noundef ptr @onigenc_unicode_unfold_key(i32 noundef %0) local_unnamed_addr #0 {
  %2 = alloca i32, align 4
  store i32 %0, ptr %2, align 4, !tbaa !4
  %3 = call i32 @onig_codes_byte_at(ptr noundef nonnull %2, i32 noundef 2) #2
  %4 = and i32 %3, 255
  %5 = add nuw nsw i32 %4, 35
  %6 = zext nneg i32 %5 to i64
  %7 = getelementptr inbounds nuw [291 x i16], ptr @hash.asso_values, i64 0, i64 %6
  %8 = load i16, ptr %7, align 2, !tbaa !8
  %9 = zext i16 %8 to i32
  %10 = call i32 @onig_codes_byte_at(ptr noundef nonnull %2, i32 noundef 1) #2
  %11 = and i32 %10, 255
  %12 = add nuw nsw i32 %11, 1
  %13 = zext nneg i32 %12 to i64
  %14 = getelementptr inbounds nuw [291 x i16], ptr @hash.asso_values, i64 0, i64 %13
  %15 = load i16, ptr %14, align 2, !tbaa !8
  %16 = zext i16 %15 to i32
  %17 = add nuw nsw i32 %16, %9
  %18 = call i32 @onig_codes_byte_at(ptr noundef nonnull %2, i32 noundef 0) #2
  %19 = and i32 %18, 255
  %20 = zext nneg i32 %19 to i64
  %21 = getelementptr inbounds nuw [291 x i16], ptr @hash.asso_values, i64 0, i64 %20
  %22 = load i16, ptr %21, align 2, !tbaa !8
  %23 = zext i16 %22 to i32
  %24 = add nuw nsw i32 %17, %23
  %25 = icmp samesign ult i32 %24, 1948
  br i1 %25, label %26, label %36

26:                                               ; preds = %1
  %27 = zext nneg i32 %24 to i64
  %28 = getelementptr inbounds nuw [1948 x %struct.ByUnfoldKey], ptr @onigenc_unicode_unfold_key.wordlist, i64 0, i64 %27
  %29 = load i32, ptr %28, align 8, !tbaa !10
  %30 = load i32, ptr %2, align 4, !tbaa !4
  %31 = icmp eq i32 %30, %29
  br i1 %31, label %32, label %.critedge

32:                                               ; preds = %26
  %33 = getelementptr inbounds nuw i8, ptr %28, i64 4
  %34 = load i16, ptr %33, align 4, !tbaa !12
  %35 = icmp sgt i16 %34, -1
  br i1 %35, label %36, label %.critedge

.critedge:                                        ; preds = %32, %26
  br label %36

36:                                               ; preds = %1, %.critedge, %32
  %37 = phi ptr [ %28, %32 ], [ null, %.critedge ], [ null, %1 ]
  ret ptr %37
}